; Function Attrs: nounwind uwtable
define void @png_start_read_image(ptr noalias noundef %0) local_unnamed_addr #0 {
  %.not = icmp eq ptr %0, null
  br i1 %.not, label %9, label %2

2:                                                ; preds = %1
  %3 = getelementptr inbounds i8, ptr %0, i64 304
  %4 = load i32, ptr %3, align 8
  %5 = and i32 %4, 64
  %6 = icmp eq i32 %5, 0
  br i1 %6, label %7, label %8

7:                                                ; preds = %2
  tail call void @png_read_start_row(ptr noundef nonnull %0) #11
  br label %9

8:                                                ; preds = %2
  tail call void @png_app_error(ptr noundef nonnull %0, ptr noundef nonnull @.str.4) #11
  br label %9

9:                                                ; preds = %7, %8, %1
  ret void
}